; Function Attrs: nounwind uwtable
define internal void @_destroy_content(ptr nocapture noundef readonly %0) #0 {
  %2 = getelementptr inbounds nuw i8, ptr %0, i64 584
  %3 = load ptr, ptr %2, align 8, !tbaa !208
  %.not = icmp eq ptr %3, null
  br i1 %.not, label %5, label %4

4:                                                ; preds = %1
  tail call void @lv_free(ptr noundef nonnull %3) #9
  br label %5

5:                                                ; preds = %4, %1
  ret void
}